(lp0
S'https://docs.google.com/spreadsheets/d/1VsQuHrvjlc8uSow2iQiwQl1naBFZMNFouLz-kyBRoH8/edit?usp=sharing'
p1
aS'https://docs.google.com/spreadsheets/d/1hGBkYOLKhZuImwRz4PB6snDJzKVFSanZ9CJPnwxqQ14/edit?usp=sharing'
p2
aS'https://docs.google.com/spreadsheets/d/13Lr_SyaLm29lZBqjZnOCGXR0s0TpzhFwMQvmUqNLsFc/edit?usp=sharing'
p3
aS'https://docs.google.com/spreadsheets/d/1qvw8cGzMSoUiaCgzEh9Qvpa5upKhUEFQj0lDLIbQc1k/edit?usp=sharing'
p4
aS'https://docs.google.com/spreadsheet/ccc?key=0AoPrckRsRTKNdHlOU2NVamNXZUQ5MHRkbmI3UXVBV3c&usp=sharing'
p5
aS'https://docs.google.com/spreadsheet/ccc?key=0AoPrckRsRTKNdFJSQllSVEkxT29sLTNFMEJnTnladXc'
p6
aS'https://docs.google.com/spreadsheets/d/1bm_G-6mKKNYLHTnbfw8nfdENATahziMGUVJQ_Ah8tis/edit?usp=sharing'
p7
aS'https://docs.google.com/spreadsheets/d/1Gv0SLyE6VTRdG2v7FgJtrchkXknVppGhk3O5Paazl-o/edit?usp=sharing'
p8
aS'https://docs.google.com/spreadsheets/d/1NvPDzAVOgXnB9sS7IPEhlabt9PY_umBF8CzWS-7XUa4/edit?usp=sharing'
p9
aS'https://docs.google.com/spreadsheet/ccc?key=0AoPrckRsRTKNdHoyakx2UXpJVVowUkswSzY4dzNfVlE&usp=sharing'
p10
aS'https://docs.google.com/spreadsheets/d/17JILp2cDLhaCSHrS6SwrgLcmzkHHFwaCEDf7hlbsKx8/edit?usp=sharing'
p11
aS'https://docs.google.com/spreadsheets/d/1V3HPFMJI4E5XyjvoFY7jT0EnsNm67VQxVHhxC141IRI/edit?usp=sharing'
p12
aS'https://docs.google.com/spreadsheets/d/11e0vA4dvyFP247pT_9eyA-JE13_CwRdbm2dggZH2368/edit?usp=sharing'
p13
aS'https://docs.google.com/spreadsheet/ccc?key=0AoPrckRsRTKNdFpOSkYyZWxmVTNWX1FSRVRyQ3g2X1E&usp=sharing'
p14
aS'https://docs.google.com/spreadsheets/d/1ghCnToT3JTwl9PLYFFsvMLDVEnzdcpbnlICsJiU0L1Q/edit?usp=sharing'
p15
aS'https://docs.google.com/spreadsheets/d/19RPLFwNKgnGw0wy55qtfRYtZVnFK3MOXU_T54tZ7org/edit?usp=sharing'
p16
aS'https://docs.google.com/spreadsheets/d/1bdFnZgvIlM5XO1s1JyrvD3ATUrak-ZSqhKS_mRAhCQs/edit?usp=sharing'
p17
aS'https://docs.google.com/spreadsheets/d/1lhFb0x0qLzlSDTY0YmvAT--q36hqPTVsojXspL3MKoE/edit?usp=sharing'
p18
aS'https://docs.google.com/spreadsheets/d/1flEtNkKbwyqL-ZC7L8s4y7Fatwc72UvgZA6X7j6LyeI/edit?usp=sharing'
p19
aS'https://docs.google.com/spreadsheets/d/1ATAbh-V_Umvxzf3l9g2zXWd9bM7yZpwLuy_PdxJsu7Q/edit?usp=sharing'
p20
aS'https://docs.google.com/spreadsheets/d/1W1mR_bMtX2PMni0YAPQsFCT2AcHkDVT7iDEmcd8lDjo/edit?usp=sharing'
p21
aS'https://docs.google.com/spreadsheet/ccc?key=0AoPrckRsRTKNdERONExJNzJqNFZPQ1RUbFl1UkV4YkE&usp=sharing'
p22
aS'https://docs.google.com/spreadsheets/d/1BRUviAni98wJjRSfS3Rj1gB92p2lpcsX0Ys0XJbgeZA/edit?usp=sharing'
p23
aS'https://docs.google.com/spreadsheets/d/1ikLtJvq1OF4xr84L2FDj5PwHBYac7x_UeJYKPZKjoa0/edit?usp=sharing'
p24
aS'https://docs.google.com/spreadsheets/d/1s0XoDa0pjwtVVw2eJ10l4W482-WgYUY6rqhjebUwhtk/edit?usp=sharing'
p25
aS'https://docs.google.com/spreadsheet/ccc?key=0AoPrckRsRTKNdHFIWTZHVmZ1V1p0dDliTXRkWm5NVEE&usp=sharing'
p26
aS'https://docs.google.com/spreadsheets/d/1Tp9bxcIVsXl1pyXbTIaxwPBp8aIKI3mlqWqQMmC9prI/edit?usp=sharing'
p27
aS'https://docs.google.com/spreadsheets/d/1V5I15frZQDtUsD62GKgIj1weiEFG4J3-9uZ4UU7EV6I/edit?usp=sharing'
p28
aS'https://docs.google.com/spreadsheets/d/1FpNP2wZPvC5oiOTV6KkX0dAjKpCYMb7CztmVbRjkBl8/edit?usp=sharing'
p29
aS'https://docs.google.com/spreadsheet/ccc?key=0AoPrckRsRTKNdDlzQ2ZRbFZHWEZKZmcxbF93aHMwUUE'
p30
aS'https://docs.google.com/spreadsheets/d/1cS2k1SLF0V50x4zH0ckKyfgtSRR69knI-V3_gHLKdoc/edit?usp=sharing'
p31
aS'https://docs.google.com/spreadsheets/d/1Sm5kPzaPc3VMBAoWIe7mu81OdHKeot9waW7tAsRAW6E/edit?usp=sharing'
p32
aS'https://docs.google.com/spreadsheets/d/1TzcwlesZureRQ19mYqyTwJcTQ4OwAPzpKfF_5cYcVzE/edit?usp=sharing'
p33
aS'https://docs.google.com/spreadsheets/d/1vAGqZ6zsop6Sb7Edh1yFegyNUqAm_GErdxaDlF0XgZc/edit?usp=sharing'
p34
aS'https://docs.google.com/spreadsheet/ccc?key=0AoPrckRsRTKNdHhlajBvaFVsclF4ZmxzbnV0ZW9lOXc&usp=sharing'
p35
aS'https://docs.google.com/spreadsheets/d/1LncnsVk04oaiozXeYuj311xSFB2hvCtkLNmTUMK8reo/edit?usp=sharing'
p36
aS'https://docs.google.com/spreadsheets/d/1l6Q7yCqXO7CJ9oHaVoePFDhPkliAq4YkCekazsOfhDU/edit?usp=sharing'
p37
aS'https://docs.google.com/spreadsheet/ccc?key=0AoPrckRsRTKNdGR5OVlXNVNHaXRDZFNhRzluTWRmLXc&usp=sharing'
p38
aS'https://docs.google.com/spreadsheets/d/1HgC3qPr_PtBE1cVgpMIcCTVAPPBcnRCuhRvGjNg6nxw/edit?usp=sharing'
p39
aS'https://docs.google.com/spreadsheets/d/1NcluHz8tg7tro9SRR4smSn-VWNBC_1k1zEXRevArpZM/edit?usp=sharing'
p40
aS'https://docs.google.com/spreadsheet/ccc?key=0AoPrckRsRTKNdE4zMXNCMVVFT0JOaURWMDNVLVN1dlE&usp=sharing'
p41
aS'https://docs.google.com/spreadsheet/ccc?key=0AoPrckRsRTKNdHFER0JvSFd1WlpqQkZGbHJsWmloRFE'
p42
aS'https://docs.google.com/spreadsheets/d/1A8V9rWB5yTops9LKNMV8ib-NS8LGbVMXnyP2L-wu50k/edit?usp=sharing'
p43
aS'https://docs.google.com/spreadsheets/d/1b6K_yf9T9miUYoXIM2scjo2bF0bz5mV_8QD9nNfEaFQ/edit?usp=sharing'
p44
aS'https://docs.google.com/spreadsheets/d/1qQMB_5Xbyx0rp9Y6MDhKGVHL6-vs_PyxuzdVPBDZrPA/edit?usp=sharing'
p45
aS'https://docs.google.com/spreadsheet/ccc?key=0AoPrckRsRTKNdDVxSGVkWUE1QjktVUlxRU5WM3daUGc&usp=sharing'
p46
aS'https://docs.google.com/spreadsheet/ccc?key=0AoPrckRsRTKNdFNCNi1KQURvaDd3TWZVdm9BemMwRmc'
p47
aS'https://docs.google.com/spreadsheet/ccc?key=0AoPrckRsRTKNdDlJWGs0MzRqZDV2bVd6N1E3RGVSa0E'
p48
aS'https://docs.google.com/spreadsheets/d/19y9SrqSs_y5beF1ok8GidRSnmRHnUhmoJKmfmCdqu2k/edit?usp=sharing'
p49
aS'https://docs.google.com/spreadsheets/d/1tefc4Lz8Uw3v1Q3xTWQ7hkylU7eTDRyXcGuizVjU2IU/edit?usp=sharing'
p50
aS'https://docs.google.com/spreadsheets/d/1wfyUTGxT3czIWvhMmCUub61yvpxjIOk5pEQh6bzzXZo/edit?usp=sharing'
p51
aS'https://docs.google.com/spreadsheets/d/1Gzo8CmPgZWCkDXrFoPbtG53-4WlFdB2zf-Y5mii2hhU/edit?usp=sharing'
p52
aS'https://docs.google.com/spreadsheets/d/1jTVz3GOEzdY7odiC6-R_HgVvCMNegvZKMrbPiIMm4Cg/edit?usp=sharing'
p53
aS'https://docs.google.com/spreadsheet/ccc?key=0AoPrckRsRTKNdGlWaXp6dEVzXzY3VkZ0TEpKNHE5NFE&usp=sharing'
p54
aS'https://docs.google.com/spreadsheets/d/1P7s-s_XyurFtgap1PKzYC7-SZi4yb-R2gUiS93_eY6Q/edit?usp=sharing'
p55
aS'https://docs.google.com/spreadsheets/d/1NXP-vx9rkFhVAse-wWA6oygJKhkhzrGgUHZY8s_mMy8/edit?usp=sharing'
p56
aS'https://docs.google.com/spreadsheets/d/1v2O_d5yqyXt_Sr6wg7nmH7Mf-MRThRL3OjQGvysmlXc/edit?usp=sharing'
p57
aS'https://docs.google.com/spreadsheet/ccc?key=0AoPrckRsRTKNdGQ0VUV4VGE5UExkYWRCMzM2Y1BtQkE'
p58
aS'https://docs.google.com/spreadsheets/d/1wjNWysS_K8-DB5qNQ8oJAlWp9JvOEeSUYlqQt-CyWpY/edit?usp=sharing'
p59
aS'https://docs.google.com/spreadsheets/d/10IX_vwPtfHf4YGb3htUsJlJ9SVONG_RaH9Ahtvh9zEc/edit?usp=sharing'
p60
aS'https://docs.google.com/spreadsheet/ccc?key=0AoPrckRsRTKNdGNmQ3p3WGpLN0Zla2FYcEc2Nk90Smc&usp=sharing'
p61
aS'https://docs.google.com/spreadsheets/d/1HDopxaSziB_uVMyCJ4hVUJi4RSkqYCSstuHLiwllb-0/edit?usp=sharing'
p62
aS'https://docs.google.com/spreadsheets/d/1hZIXgQ7YJTXiN7ZiZwdU9AW3YLACjPzTgsX4R1uAJZs/edit?usp=sharing'
p63
aS'https://docs.google.com/spreadsheet/ccc?key=0AoPrckRsRTKNdE1VVmNaN3VCUmZLMFppMUxnbFpMZWc&usp=sharing'
p64
aS'https://docs.google.com/spreadsheets/d/1TKU7XYnKJkN_hcCcQe3fAub_4Nx6iEr0vH9I0cswsgk/edit?usp=sharing'
p65
aS'https://docs.google.com/spreadsheet/ccc?key=0AoPrckRsRTKNdDlZU20yZ2c3R3VEOHRWa3gwWWJLM1E&usp=sharing'
p66
aS'https://docs.google.com/spreadsheets/d/1LkVMC8k_5Y9vwMM9MbWvFgBukAybhWwl5akZEc81MPA/edit?usp=sharing'
p67
aS'https://docs.google.com/spreadsheets/d/1xQq9U-kejXlxvegHUysUkLTKDRl5CrSGSjRUAXOxgrA/edit?usp=sharing'
p68
aS'https://docs.google.com/spreadsheet/ccc?key=0AoPrckRsRTKNdDgzY0RQdzFfZWtYVG9xa0RQNTk3aUE&usp=sharing'
p69
aS'https://docs.google.com/spreadsheets/d/1a7hZJXO3iU4OXtamZc8TJztS_hMQa5lo9Lzvnn6YtsA/edit?usp=sharing'
p70
aS'https://docs.google.com/spreadsheet/ccc?key=0AoPrckRsRTKNdFNmd0FDTlJMY1FFc2dqS1QzLUhzZUE&usp=sharing'
p71
aS'https://docs.google.com/spreadsheet/ccc?key=0AoPrckRsRTKNdDZZVW9saGhFMW9YN0lNdkdTOXplZXc'
p72
aS'https://docs.google.com/spreadsheets/d/1iIlgiR0AKd0Xf--PxNCwRTDrHgtTYcKoZCaIg-qedoc/edit?usp=sharing'
p73
aS'https://docs.google.com/spreadsheets/d/1ze3MkqIhpoWC_aImPXmHJ5Y66C4-AOq1UDJTDXjCALg/edit?usp=sharing'
p74
aS'https://docs.google.com/spreadsheet/ccc?key=0AoPrckRsRTKNdHdhMVcxVEhxWWZqOUpJN2xLc1VZX0E'
p75
aS'https://docs.google.com/spreadsheets/d/1DjsIxPJ5UbBCY4r7ohoA0WNnmadDmlhSg9DxKeChpiM/edit?usp=sharing'
p76
aS'https://docs.google.com/spreadsheets/d/1VYf_ba3t7RK2fACf3YnM1MfbXajUxwJMaQlZvAF4rPw/edit?usp=sharing'
p77
aS'https://docs.google.com/spreadsheets/d/1ObU3csFbqXjydPsU1u2azHH6rWlmXysReeF-_i2sNh8/edit?usp=sharing'
p78
aS'https://docs.google.com/spreadsheets/d/1Ftg4ZG0Z7ROJoUUvXMXHip0OLMGzyr7nnWc0625PN2I/edit?usp=sharing'
p79
aS'https://docs.google.com/spreadsheets/d/1vvdO8PEeM0aVwMqTnHxroE4V3UL_EA63YoVH_KpZ4HA/edit?usp=sharing'
p80
aS'https://docs.google.com/spreadsheets/d/1qKBkeapA1efEWdOiVKpLZXMmCjkBsOksj_0vC4LoZns/edit?usp=sharing'
p81
aS'https://docs.google.com/spreadsheets/d/1p176L-bZ5-VS0OdknMIDY1i_IfNmRHJO9dEiY5FVZYw/edit?usp=sharing'
p82
aS'https://docs.google.com/spreadsheets/d/1jdmX6dBoIM-Zrn64Qmb042SeME33ZQUnqGAUVNkNuoU/edit?usp=sharing'
p83
aS'https://docs.google.com/spreadsheets/d/1RBrDMwUmvhk1uj53Od-sYvTTTNU1Sf37BS3Y3MOkKhw/edit?usp=sharing'
p84
aS'https://docs.google.com/spreadsheets/d/1V2JIyfuS1X1MQc_Y1zVJsvQYnqZftFioHd3vA10GR58/edit?usp=sharing'
p85
aS'https://docs.google.com/spreadsheet/ccc?key=0AoPrckRsRTKNdEl0TFZ2VmRUaU9CMF9kaVRvaVY3WVE&usp=sharing'
p86
aS'https://docs.google.com/spreadsheet/ccc?key=0AoPrckRsRTKNdGgzTlhqQ0M0eGZHOVBpVHVJOU1lY3c'
p87
aS'https://docs.google.com/spreadsheets/d/1hi-67DGXnSALdHVmoT39517lB1lFO_8Wo6bLsjNByZ8/edit?usp=sharing'
p88
aS'https://docs.google.com/spreadsheets/d/1rGqpFP7EysOIEXNm4xzJxVU4Qp3GC7HWPPrua6RWs-A/edit?usp=sharing'
p89
aS'https://docs.google.com/spreadsheet/ccc?key=0AoPrckRsRTKNdDdoQlkwYzh4ci1wV0VnazRleXV3UVE&usp=sharing'
p90
aS'https://docs.google.com/spreadsheets/d/1VPDU1uHsEu8mee7obwTJYYMtiorM9AFrG-c0JXiwXIg/edit?usp=sharing'
p91
aS'https://docs.google.com/spreadsheets/d/1fukFkkCfakjgqgSZ1hc62K_ikTcGYwCTRLsv8HysAzU/edit?usp=sharing'
p92
aS'https://docs.google.com/spreadsheet/ccc?key=0AoPrckRsRTKNdDg0azRGN3dOYmtmQl82QXdtdVFXZVE&usp=sharing'
p93
aS'https://docs.google.com/spreadsheet/ccc?key=0AoPrckRsRTKNdHl2aHVsem9LdU1GVTZYNHdibTNWcmc'
p94
aS'https://docs.google.com/spreadsheets/d/1lTCsShEdjorqk2W9CzspZIugSU13sIiBbJLg8giyxHU/edit?usp=sharing'
p95
aS'https://docs.google.com/spreadsheets/d/1b5Etu0Dp0objuy6XbFn153j8zUKqJVXM5j7hviC2pP8/edit?usp=sharing'
p96
aS'https://docs.google.com/spreadsheet/ccc?key=0AoPrckRsRTKNdEJ0YlpHRTg2c1hydk1HcUVrbnJlNVE&usp=sharing'
p97
aS'https://docs.google.com/spreadsheet/ccc?key=0AoPrckRsRTKNdFNZdTdSVGdpQllvb28wRW5ZMzBNbnc&usp=sharing'
p98
aS'https://docs.google.com/spreadsheets/d/151uX1qDDVo1daXW9HGvWvdM-PMqxk8oQADQ-oiatX6A/edit?usp=sharing'
p99
aS'https://docs.google.com/spreadsheets/d/1IqSKPbAz7NWToKsI4vzX-ff6H18nILelSP2QN13MFqo/edit?usp=sharing'
p100
aS'https://docs.google.com/spreadsheets/d/111gJmeYNVivYjTT6LJygkmRKnK5-tfVK4Y6XXMQgAVQ/edit?usp=sharing'
p101
aS'https://docs.google.com/spreadsheet/ccc?key=0AoPrckRsRTKNdEdPZlhLb2p4Y3BRSlBmbHNyOC1CU2c&usp=sharing'
p102
aS'https://docs.google.com/spreadsheets/d/1-ovCwaI_nR_ixHtFehuOvDZ1ZErolV4Ctef_86lC-zA/edit?usp=sharing'
p103
aS'https://docs.google.com/spreadsheets/d/1V8Pu8CL2TZSTKFWiz7Gz4H9FVqL62yoBRyCPgOPqYVA/edit?usp=sharing'
p104
aS'https://docs.google.com/spreadsheet/ccc?key=0AoPrckRsRTKNdFJsSjJ5bWszOExzaDRURG1MZzF3bWc&usp=sharing'
p105
aS'https://docs.google.com/spreadsheets/d/1ffcxGVWDaNVSgLZ7xh_Wl49np4UODVzsjjVJUOwg0DQ/edit?usp=sharing'
p106
aS'https://docs.google.com/spreadsheets/d/11rYTw3iQiDxLMR0KvZe8Rn-xplBNCCwWmzyqr4c9OA8/edit?usp=sharing'
p107
aS'https://docs.google.com/spreadsheets/d/1E_8qUSWnLBsshg54wyhwLFI64N_RX76gAbcXEJEH4To/edit?usp=sharing'
p108
aS'https://docs.google.com/spreadsheets/d/1m5bUdLMM5WLHw7BgYgnwtmYqDnJ7nZevl4F5xdiIEtg/edit?usp=sharing'
p109
aS'https://docs.google.com/spreadsheet/ccc?key=0AoPrckRsRTKNdENNWDFqYkY3Rnc2T3ZPVk84ZVY5M0E&usp=sharing'
p110
aS'https://docs.google.com/spreadsheets/d/1PJk_JBXXd6F-7Ztajo7zspw0ybZ2d-8J43NYp81aopo/edit?usp=sharing'
p111
aS'https://docs.google.com/spreadsheets/d/1WICiPnQ6KyDCY9DIh0h1vDy-r8HQAZFLSXZuyw5GIHM/edit?usp=sharing'
p112
aS'https://docs.google.com/spreadsheets/d/1HkbiAiGQtJsTx6WhUDQ9t40_1LqZ_77LVDSOu5zgVmI/edit?usp=sharing'
p113
aS'https://docs.google.com/spreadsheet/ccc?key=0AoPrckRsRTKNdHdDVGx3UXBaZ2xlZl9BOHBVbVZhTXc&usp=sharing'
p114
aS'https://docs.google.com/spreadsheets/d/1wjjk-GiGY4gl9qb8Y6n8tSOZGPTrw7jur-9dX2roa90/edit?usp=sharing'
p115
aS'https://docs.google.com/spreadsheets/d/1jBrUvIffkF47RUoIS1gx4mEp-0Mb44pNrMrQxoPVtRU/edit?usp=sharing'
p116
aS'https://docs.google.com/spreadsheets/d/17aHLFAf54jXS7KE5nxhwe46g-LvXstHrk9dmPUrSYS4/edit?usp=sharing'
p117
aS'https://docs.google.com/spreadsheet/ccc?key=0AoPrckRsRTKNdEUycW5rMVF0ZDZUOU1qUHVYWFpyS2c&usp=sharing'
p118
aS'https://docs.google.com/spreadsheets/d/1yRTVh8Jm7eqfazBXqXUZeJJIQ1gQ3eXn04w4uS97sT4/edit?usp=sharing'
p119
aS'https://docs.google.com/spreadsheets/d/1QLolKvU15YSspEmESsgrXivKB1kzLwgCzAVlzmPXDDQ/edit?usp=sharing'
p120
aS'https://docs.google.com/spreadsheet/ccc?key=0AoPrckRsRTKNdGkyNTQxWjZ6NzZVWnE2MG91WjYydnc&usp=sharing'
p121
aS'https://docs.google.com/spreadsheet/ccc?key=0AoPrckRsRTKNdHBWUFZmeGk0Q3p5VUVOcXQ2T1JoaEE#gid=0'
p122
aS'https://docs.google.com/spreadsheets/d/1YY_JhGEbiPj_YEjaFjpsUxRG9togcGbWmdZUhfPbjCE/edit?usp=sharing'
p123
aS'https://docs.google.com/spreadsheets/d/1sAkdat7znCwamvDICR9xDhKndtIR5wE6qoU4EssNAPY/edit?usp=sharing'
p124
aS'https://docs.google.com/spreadsheet/ccc?key=0AoPrckRsRTKNdDZNdHNUOFRGVDlfd1lSeEF1TWxGVGc&usp=sharing'
p125
aS'https://docs.google.com/spreadsheets/d/1W6nlE30ggKDLW1uyrxDFaTbvTz9CcuyugRMclcgPHUE/edit?usp=sharing'
p126
aS'https://docs.google.com/spreadsheets/d/124jsv6ixrMyJoX8lTIdeuv6ZhecRejo97eV_74r1Fso/edit?usp=sharing'
p127
aS'https://docs.google.com/spreadsheet/ccc?key=0AoPrckRsRTKNdHpwX1BjVDJJYWpEWk51dWk1NTNObkE&usp=sharing'
p128
a.